target datalayout = "e-m:e-p270:32:32-p271:32:32-p272:64:64-i64:64-i128:128-f80:128-n8:16:32:64-S128"
target triple = "x86_64-pc-linux-gnu"

; Function Attrs: nounwind uwtable
define void @luckyCanonicizerS_F_first_16Vars1(ptr noundef %0, i32 noundef %1, i32 noundef %2, ptr noundef %3, ptr noundef %4, ptr noundef %5) #0 {
  %7 = alloca ptr, align 8
  %8 = alloca i32, align 4
  %9 = alloca i32, align 4
  %10 = alloca ptr, align 8
  %11 = alloca ptr, align 8
  %12 = alloca ptr, align 8
  store ptr %0, ptr %7, align 8, !tbaa !3
  store i32 %1, ptr %8, align 4, !tbaa !8
  store i32 %2, ptr %9, align 4, !tbaa !8
  store ptr %3, ptr %10, align 8, !tbaa !12
  store ptr %4, ptr %11, align 8, !tbaa !10
  store ptr %5, ptr %12, align 8, !tbaa !12
  %13 = load ptr, ptr %12, align 8, !tbaa !12
  %14 = load i32, ptr %13, align 4, !tbaa !8
  %15 = load i32, ptr %8, align 4, !tbaa !8
  %16 = add nsw i32 %15, 1
  %17 = lshr i32 %14, %16
  %18 = and i32 %17, 1
  %19 = icmp ne i32 %18, 0
  br i1 %19, label %20, label %32

20:                                               ; preds = %6
  br label %21

21:                                               ; preds = %30, %20
  %22 = load ptr, ptr %7, align 8, !tbaa !3
  %23 = load i32, ptr %8, align 4, !tbaa !8
  %24 = load i32, ptr %9, align 4, !tbaa !8
  %25 = load ptr, ptr %10, align 8, !tbaa !12
  %26 = load ptr, ptr %11, align 8, !tbaa !10
  %27 = load ptr, ptr %12, align 8, !tbaa !12
  %28 = call i32 @minimalSwapAndFlipIVar_superFast_all(ptr noundef %22, i32 noundef %23, i32 noundef %24, ptr noundef %25, ptr noundef %26, ptr noundef %27)
  %29 = icmp ne i32 %28, 0
  br i1 %29, label %30, label %31

30:                                               ; preds = %21
  br label %21, !llvm.loop !43

31:                                               ; preds = %21
  br label %44

32:                                               ; preds = %6
  br label %33

33:                                               ; preds = %42, %32
  %34 = load ptr, ptr %7, align 8, !tbaa !3
  %35 = load i32, ptr %8, align 4, !tbaa !8
  %36 = load i32, ptr %9, align 4, !tbaa !8
  %37 = load ptr, ptr %10, align 8, !tbaa !12
  %38 = load ptr, ptr %11, align 8, !tbaa !10
  %39 = load ptr, ptr %12, align 8, !tbaa !12
  %40 = call i32 @minimalSwapAndFlipIVar_superFast_all_noEBFC(ptr noundef %34, i32 noundef %35, i32 noundef %36, ptr noundef %37, ptr noundef %38, ptr noundef %39)
  %41 = icmp ne i32 %40, 0
  br i1 %41, label %42, label %43

42:                                               ; preds = %33
  br label %33, !llvm.loop !44

43:                                               ; preds = %33
  br label %44

44:                                               ; preds = %43, %31
  ret void
}

; Function Attrs: nounwind uwtable
define void @luckyCanonicizer_final_fast_16Vars(ptr noundef %0, i32 noundef %1, i32 noundef %2, ptr noundef %3, ptr noundef %4, ptr noundef %5) #0 {
  %7 = alloca ptr, align 8
  %8 = alloca i32, align 4
  %9 = alloca i32, align 4
  %10 = alloca ptr, align 8
  %11 = alloca ptr, align 8
  %12 = alloca ptr, align 8
  store ptr %0, ptr %7, align 8, !tbaa !3
  store i32 %1, ptr %8, align 4, !tbaa !8
  store i32 %2, ptr %9, align 4, !tbaa !8
  store ptr %3, ptr %10, align 8, !tbaa !12
  store ptr %4, ptr %11, align 8, !tbaa !10
  store ptr %5, ptr %12, align 8, !tbaa !12
  %13 = load ptr, ptr %7, align 8, !tbaa !3
  %14 = load i32, ptr %8, align 4, !tbaa !8
  %15 = load ptr, ptr %11, align 8, !tbaa !10
  %16 = load ptr, ptr %10, align 8, !tbaa !12
  %17 = call i32 @Kit_TruthSemiCanonicize_Yasha1(ptr noundef %13, i32 noundef %14, ptr noundef %15, ptr noundef %16)
  %18 = load ptr, ptr %12, align 8, !tbaa !12
  store i32 %17, ptr %18, align 4, !tbaa !8
  %19 = load ptr, ptr %7, align 8, !tbaa !3
  %20 = load i32, ptr %8, align 4, !tbaa !8
  %21 = load i32, ptr %9, align 4, !tbaa !8
  %22 = load ptr, ptr %10, align 8, !tbaa !12
  %23 = load ptr, ptr %11, align 8, !tbaa !10
  %24 = load ptr, ptr %12, align 8, !tbaa !12
  call void @luckyCanonicizerS_F_first_16Vars1(ptr noundef %19, i32 noundef %20, i32 noundef %21, ptr noundef %22, ptr noundef %23, ptr noundef %24)
  ret void
}

; Function Attrs: nounwind uwtable
define i32 @luckyCanonicizer_final_fast(ptr noundef %0, i32 noundef %1, ptr noundef %2) #0 {
  %4 = alloca ptr, align 8
  %5 = alloca i32, align 4
  %6 = alloca ptr, align 8
  %7 = alloca i32, align 4
  %8 = alloca [16 x i32], align 16
  %9 = alloca i32, align 4
  store ptr %0, ptr %4, align 8, !tbaa !3
  store i32 %1, ptr %5, align 4, !tbaa !8
  store ptr %2, ptr %6, align 8, !tbaa !10
  call void @llvm.lifetime.start.p0(i64 4, ptr %7) #7
  call void @llvm.lifetime.start.p0(i64 64, ptr %8) #7
  call void @llvm.lifetime.start.p0(i64 4, ptr %9) #7
  store i32 0, ptr %9, align 4, !tbaa !8
  %10 = load i32, ptr %5, align 4, !tbaa !8
  %11 = icmp sle i32 %10, 6
  br i1 %11, label %12, label %21

12:                                               ; preds = %3
  %13 = load ptr, ptr %4, align 8, !tbaa !3
  %14 = getelementptr inbounds i64, ptr %13, i64 0
  %15 = load i64, ptr %14, align 8, !tbaa !18
  %16 = getelementptr inbounds [16 x i32], ptr %8, i64 0, i64 0
  %17 = load ptr, ptr %6, align 8, !tbaa !10
  %18 = call i64 @luckyCanonicizer_final_fast_6Vars(i64 noundef %15, ptr noundef %16, ptr noundef %17, ptr noundef %9)
  %19 = load ptr, ptr %4, align 8, !tbaa !3
  %20 = getelementptr inbounds i64, ptr %19, i64 0
  store i64 %18, ptr %20, align 8, !tbaa !18
  br label %41

21:                                               ; preds = %3
  %22 = load i32, ptr %5, align 4, !tbaa !8
  %23 = icmp sle i32 %22, 16
  br i1 %23, label %24, label %39

24:                                               ; preds = %21
  %25 = load i32, ptr %5, align 4, !tbaa !8
  %26 = icmp sle i32 %25, 6
  br i1 %26, label %27, label %28

27:                                               ; preds = %24
  br label %32

28:                                               ; preds = %24
  %29 = load i32, ptr %5, align 4, !tbaa !8
  %30 = sub nsw i32 %29, 6
  %31 = shl i32 1, %30
  br label %32

32:                                               ; preds = %28, %27
  %33 = phi i32 [ 1, %27 ], [ %31, %28 ]
  store i32 %33, ptr %7, align 4, !tbaa !8
  %34 = load ptr, ptr %4, align 8, !tbaa !3
  %35 = load i32, ptr %5, align 4, !tbaa !8
  %36 = load i32, ptr %7, align 4, !tbaa !8
  %37 = getelementptr inbounds [16 x i32], ptr %8, i64 0, i64 0
  %38 = load ptr, ptr %6, align 8, !tbaa !10
  call void @luckyCanonicizer_final_fast_16Vars(ptr noundef %34, i32 noundef %35, i32 noundef %36, ptr noundef %37, ptr noundef %38, ptr noundef %9)
  br label %40

39:                                               ; preds = %21
  br label %40

40:                                               ; preds = %39, %32
  br label %41

41:                                               ; preds = %40, %12
  %42 = load i32, ptr %9, align 4, !tbaa !8
  call void @llvm.lifetime.end.p0(i64 4, ptr %9) #7
  call void @llvm.lifetime.end.p0(i64 64, ptr %8) #7
  call void @llvm.lifetime.end.p0(i64 4, ptr %7) #7
  ret i32 %42
}