; Function Attrs: nounwind uwtable
define i32 @luckyCanonicizer_final_fast(ptr noundef %0, i32 noundef %1, ptr noundef %2) local_unnamed_addr #0 {
  %4 = alloca [16 x i32], align 16
  %5 = alloca i32, align 4
  call void @llvm.lifetime.start.p0(i64 64, ptr nonnull %4) #9
  call void @llvm.lifetime.start.p0(i64 4, ptr nonnull %5) #9
  store i32 0, ptr %5, align 4, !tbaa !6
  %6 = icmp slt i32 %1, 7
  br i1 %6, label %7, label %10

7:                                                ; preds = %3
  %8 = load i64, ptr %0, align 8, !tbaa !11
  %9 = call i64 @luckyCanonicizer_final_fast_6Vars(i64 noundef %8, ptr noundef nonnull %4, ptr noundef %2, ptr noundef nonnull %5) #9
  store i64 %9, ptr %0, align 8, !tbaa !11
  br label %luckyCanonicizer_final_fast_16Vars.exit

10:                                               ; preds = %3
  %11 = icmp samesign ult i32 %1, 17
  br i1 %11, label %12, label %luckyCanonicizer_final_fast_16Vars.exit

12:                                               ; preds = %10
  %13 = add nsw i32 %1, -6
  %14 = shl nuw nsw i32 1, %13
  %15 = call i32 @Kit_TruthSemiCanonicize_Yasha1(ptr noundef %0, i32 noundef %1, ptr noundef %2, ptr noundef nonnull %4) #9
  store i32 %15, ptr %5, align 4, !tbaa !6
  %16 = shl nuw nsw i32 2, %1
  %17 = and i32 %15, %16
  %.not.i.i = icmp eq i32 %17, 0
  br i1 %.not.i.i, label %.preheader.i.i, label %.preheader15.i.i

.preheader15.i.i:                                 ; preds = %12, %.preheader15.i.i
  %18 = call i32 @minimalSwapAndFlipIVar_superFast_all(ptr noundef %0, i32 noundef %1, i32 noundef %14, ptr noundef nonnull readonly %4, ptr noundef %2, ptr noundef nonnull %5)
  %.not14.i.i = icmp eq i32 %18, 0
  br i1 %.not14.i.i, label %luckyCanonicizer_final_fast_16Vars.exit, label %.preheader15.i.i, !llvm.loop !36

.preheader.i.i:                                   ; preds = %12, %.preheader.i.i
  %19 = call i32 @minimalSwapAndFlipIVar_superFast_all_noEBFC(ptr noundef %0, i32 noundef %1, i32 noundef %14, ptr noundef nonnull readonly %4, ptr noundef %2, ptr noundef nonnull %5)
  %.not13.i.i = icmp eq i32 %19, 0
  br i1 %.not13.i.i, label %luckyCanonicizer_final_fast_16Vars.exit, label %.preheader.i.i, !llvm.loop !37

luckyCanonicizer_final_fast_16Vars.exit:          ; preds = %.preheader15.i.i, %.preheader.i.i, %10, %7
  %20 = load i32, ptr %5, align 4, !tbaa !6
  call void @llvm.lifetime.end.p0(i64 4, ptr nonnull %5) #9
  call void @llvm.lifetime.end.p0(i64 64, ptr nonnull %4) #9
  ret i32 %20
}